target datalayout = "e-m:e-p270:32:32-p271:32:32-p272:64:64-i64:64-i128:128-f80:128-n8:16:32:64-S128"
target triple = "x86_64-pc-linux-gnu"

%struct.ImVec2 = type { float, float }
%struct.ImTriangulator = type { i32, ptr, %struct.ImTriangulatorNodeSpan, %struct.ImTriangulatorNodeSpan }
%struct.ImTriangulatorNodeSpan = type <{ ptr, i32, [4 x i8] }>
%struct.ImTriangulatorNode = type { i32, i32, %struct.ImVec2, ptr, ptr }

; Function Attrs: mustprogress nounwind uwtable
define void @_ZN14ImTriangulator12FlipNodeListEv(ptr noundef nonnull align 8 dereferenceable(48) %0) #3 align 2 {
  %2 = alloca ptr, align 8
  %3 = alloca ptr, align 8
  %4 = alloca ptr, align 8
  %5 = alloca ptr, align 8
  store ptr %0, ptr %2, align 8, !tbaa !216
  %6 = load ptr, ptr %2, align 8
  call void @llvm.lifetime.start.p0(i64 8, ptr %3) #17
  %7 = getelementptr inbounds nuw %struct.ImTriangulator, ptr %6, i32 0, i32 1
  %8 = load ptr, ptr %7, align 8, !tbaa !224
  store ptr %8, ptr %3, align 8, !tbaa !234
  call void @llvm.lifetime.start.p0(i64 8, ptr %4) #17
  %9 = getelementptr inbounds nuw %struct.ImTriangulator, ptr %6, i32 0, i32 1
  %10 = load ptr, ptr %9, align 8, !tbaa !224
  store ptr %10, ptr %4, align 8, !tbaa !234
  call void @llvm.lifetime.start.p0(i64 8, ptr %5) #17
  %11 = getelementptr inbounds nuw %struct.ImTriangulator, ptr %6, i32 0, i32 1
  %12 = load ptr, ptr %11, align 8, !tbaa !224
  %13 = getelementptr inbounds nuw %struct.ImTriangulatorNode, ptr %12, i32 0, i32 3
  %14 = load ptr, ptr %13, align 8, !tbaa !231
  store ptr %14, ptr %5, align 8, !tbaa !234
  %15 = load ptr, ptr %3, align 8, !tbaa !234
  %16 = load ptr, ptr %3, align 8, !tbaa !234
  %17 = getelementptr inbounds nuw %struct.ImTriangulatorNode, ptr %16, i32 0, i32 3
  store ptr %15, ptr %17, align 8, !tbaa !231
  %18 = load ptr, ptr %3, align 8, !tbaa !234
  %19 = load ptr, ptr %3, align 8, !tbaa !234
  %20 = getelementptr inbounds nuw %struct.ImTriangulatorNode, ptr %19, i32 0, i32 4
  store ptr %18, ptr %20, align 8, !tbaa !232
  br label %21

21:                                               ; preds = %26, %1
  %22 = load ptr, ptr %5, align 8, !tbaa !234
  %23 = getelementptr inbounds nuw %struct.ImTriangulator, ptr %6, i32 0, i32 1
  %24 = load ptr, ptr %23, align 8, !tbaa !224
  %25 = icmp ne ptr %22, %24
  br i1 %25, label %26, label %46

26:                                               ; preds = %21
  %27 = load ptr, ptr %5, align 8, !tbaa !234
  %28 = getelementptr inbounds nuw %struct.ImTriangulatorNode, ptr %27, i32 0, i32 3
  %29 = load ptr, ptr %28, align 8, !tbaa !231
  store ptr %29, ptr %4, align 8, !tbaa !234
  %30 = load ptr, ptr %3, align 8, !tbaa !234
  %31 = load ptr, ptr %5, align 8, !tbaa !234
  %32 = getelementptr inbounds nuw %struct.ImTriangulatorNode, ptr %31, i32 0, i32 3
  store ptr %30, ptr %32, align 8, !tbaa !231
  %33 = load ptr, ptr %5, align 8, !tbaa !234
  %34 = load ptr, ptr %3, align 8, !tbaa !234
  %35 = getelementptr inbounds nuw %struct.ImTriangulatorNode, ptr %34, i32 0, i32 4
  store ptr %33, ptr %35, align 8, !tbaa !232
  %36 = load ptr, ptr %5, align 8, !tbaa !234
  %37 = getelementptr inbounds nuw %struct.ImTriangulator, ptr %6, i32 0, i32 1
  %38 = load ptr, ptr %37, align 8, !tbaa !224
  %39 = getelementptr inbounds nuw %struct.ImTriangulatorNode, ptr %38, i32 0, i32 3
  store ptr %36, ptr %39, align 8, !tbaa !231
  %40 = getelementptr inbounds nuw %struct.ImTriangulator, ptr %6, i32 0, i32 1
  %41 = load ptr, ptr %40, align 8, !tbaa !224
  %42 = load ptr, ptr %5, align 8, !tbaa !234
  %43 = getelementptr inbounds nuw %struct.ImTriangulatorNode, ptr %42, i32 0, i32 4
  store ptr %41, ptr %43, align 8, !tbaa !232
  %44 = load ptr, ptr %5, align 8, !tbaa !234
  store ptr %44, ptr %3, align 8, !tbaa !234
  %45 = load ptr, ptr %4, align 8, !tbaa !234
  store ptr %45, ptr %5, align 8, !tbaa !234
  br label %21, !llvm.loop !248

46:                                               ; preds = %21
  %47 = load ptr, ptr %3, align 8, !tbaa !234
  %48 = getelementptr inbounds nuw %struct.ImTriangulator, ptr %6, i32 0, i32 1
  store ptr %47, ptr %48, align 8, !tbaa !224
  call void @llvm.lifetime.end.p0(i64 8, ptr %5) #17
  call void @llvm.lifetime.end.p0(i64 8, ptr %4) #17
  call void @llvm.lifetime.end.p0(i64 8, ptr %3) #17
  ret void
}