; Function Attrs: mustprogress nofree norecurse nosync nounwind memory(readwrite, inaccessiblemem: none) uwtable
define void @_ZN14ImTriangulator12FlipNodeListEv(ptr noundef nonnull align 8 captures(none) dereferenceable(48) %0) local_unnamed_addr #24 align 2 {
  %2 = getelementptr inbounds nuw i8, ptr %0, i64 8
  %3 = load ptr, ptr %2, align 8, !tbaa !185
  %4 = getelementptr inbounds nuw i8, ptr %3, i64 16
  %5 = load ptr, ptr %4, align 8, !tbaa !191
  store ptr %3, ptr %4, align 8, !tbaa !191
  %6 = getelementptr inbounds nuw i8, ptr %3, i64 24
  store ptr %3, ptr %6, align 8, !tbaa !188
  %.not17 = icmp eq ptr %5, %3
  br i1 %.not17, label %._crit_edge, label %.lr.ph

.lr.ph:                                           ; preds = %1, %.lr.ph
  %.019 = phi ptr [ %8, %.lr.ph ], [ %5, %1 ]
  %.01618 = phi ptr [ %.019, %.lr.ph ], [ %3, %1 ]
  %7 = getelementptr inbounds nuw i8, ptr %.019, i64 16
  %8 = load ptr, ptr %7, align 8, !tbaa !191
  store ptr %.01618, ptr %7, align 8, !tbaa !191
  %9 = getelementptr inbounds nuw i8, ptr %.01618, i64 24
  store ptr %.019, ptr %9, align 8, !tbaa !188
  store ptr %.019, ptr %4, align 8, !tbaa !191
  %10 = getelementptr inbounds nuw i8, ptr %.019, i64 24
  store ptr %3, ptr %10, align 8, !tbaa !188
  %.not = icmp eq ptr %8, %3
  br i1 %.not, label %._crit_edge, label %.lr.ph, !llvm.loop !203

._crit_edge:                                      ; preds = %.lr.ph, %1
  %.016.lcssa = phi ptr [ %3, %1 ], [ %.019, %.lr.ph ]
  store ptr %.016.lcssa, ptr %2, align 8, !tbaa !185
  ret void
}